; ModuleID = '58/49.c'
source_filename = "58/49.c"
target datalayout = "e-m:e-p270:32:32-p271:32:32-p272:64:64-i64:64-f80:128-n8:16:32:64-S128"
target triple = "x86_64-pc-linux-gnu"

@.str = private unnamed_addr constant [4 x i8] c"%d\0A\00", align 1

; Function Attrs: noinline nounwind uwtable
define dso_local i32 @main() #0 {
  %1 = alloca i32, align 4
  %2 = alloca i32, align 4
  %3 = alloca i32, align 4
  %4 = alloca i32, align 4
  %5 = alloca i8*, align 8
  %6 = alloca i32*, align 8
  %7 = alloca [10000 x [81 x i8]], align 16
  %8 = alloca [10000 x i32], align 16
  store i32 0, i32* %1, align 4
  %9 = getelementptr inbounds [10000 x i32], [10000 x i32]* %8, i64 0, i64 0
  store i32* %9, i32** %6, align 8
  %10 = call i32 (i8*, ...) @__isoc99_scanf(i8* getelementptr inbounds ([4 x i8], [4 x i8]* @.str, i64 0, i64 0), i32* %2)
  store i32 0, i32* %3, align 4
  br label %11

11:                                               ; preds = %148, %0
  %12 = load i32, i32* %3, align 4
  %13 = load i32, i32* %2, align 4
  %14 = icmp slt i32 %12, %13
  br i1 %14, label %15, label %151

15:                                               ; preds = %11
  %16 = load i32, i32* %3, align 4
  %17 = sext i32 %16 to i64
  %18 = getelementptr inbounds [10000 x [81 x i8]], [10000 x [81 x i8]]* %7, i64 0, i64 %17
  %19 = getelementptr inbounds [81 x i8], [81 x i8]* %18, i64 0, i64 0
  store i8* %19, i8** %5, align 8
  %20 = load i8*, i8** %5, align 8
  %21 = call i32 (i8*, ...) bitcast (i32 (...)* @gets to i32 (i8*, ...)*)(i8* %20)
  %22 = load i32*, i32** %6, align 8
  %23 = load i32, i32* %3, align 4
  %24 = sext i32 %23 to i64
  %25 = getelementptr inbounds i32, i32* %22, i64 %24
  store i32 1, i32* %25, align 4
  store i32 0, i32* %4, align 4
  br label %26

26:                                               ; preds = %144, %15
  %27 = load i8*, i8** %5, align 8
  %28 = load i32, i32* %4, align 4
  %29 = sext i32 %28 to i64
  %30 = getelementptr inbounds i8, i8* %27, i64 %29
  %31 = load i8, i8* %30, align 1
  %32 = sext i8 %31 to i32
  %33 = icmp ne i32 %32, 0
  br i1 %33, label %34, label %147

34:                                               ; preds = %26
  %35 = load i8*, i8** %5, align 8
  %36 = load i32, i32* %4, align 4
  %37 = sext i32 %36 to i64
  %38 = getelementptr inbounds i8, i8* %35, i64 %37
  %39 = load i8, i8* %38, align 1
  %40 = sext i8 %39 to i32
  %41 = icmp ne i32 %40, 95
  br i1 %41, label %42, label %95

42:                                               ; preds = %34
  %43 = load i8*, i8** %5, align 8
  %44 = load i32, i32* %4, align 4
  %45 = sext i32 %44 to i64
  %46 = getelementptr inbounds i8, i8* %43, i64 %45
  %47 = load i8, i8* %46, align 1
  %48 = sext i8 %47 to i32
  %49 = icmp sgt i32 %48, 47
  br i1 %49, label %95, label %50

50:                                               ; preds = %42
  %51 = load i8*, i8** %5, align 8
  %52 = load i32, i32* %4, align 4
  %53 = sext i32 %52 to i64
  %54 = getelementptr inbounds i8, i8* %51, i64 %53
  %55 = load i8, i8* %54, align 1
  %56 = sext i8 %55 to i32
  %57 = icmp slt i32 %56, 58
  br i1 %57, label %58, label %95

58:                                               ; preds = %50
  %59 = load i8*, i8** %5, align 8
  %60 = load i32, i32* %4, align 4
  %61 = sext i32 %60 to i64
  %62 = getelementptr inbounds i8, i8* %59, i64 %61
  %63 = load i8, i8* %62, align 1
  %64 = sext i8 %63 to i32
  %65 = icmp sgt i32 %64, 64
  br i1 %65, label %95, label %66

66:                                               ; preds = %58
  %67 = load i8*, i8** %5, align 8
  %68 = load i32, i32* %4, align 4
  %69 = sext i32 %68 to i64
  %70 = getelementptr inbounds i8, i8* %67, i64 %69
  %71 = load i8, i8* %70, align 1
  %72 = sext i8 %71 to i32
  %73 = icmp slt i32 %72, 91
  br i1 %73, label %74, label %95

74:                                               ; preds = %66
  %75 = load i8*, i8** %5, align 8
  %76 = load i32, i32* %4, align 4
  %77 = sext i32 %76 to i64
  %78 = getelementptr inbounds i8, i8* %75, i64 %77
  %79 = load i8, i8* %78, align 1
  %80 = sext i8 %79 to i32
  %81 = icmp sgt i32 %80, 96
  br i1 %81, label %95, label %82

82:                                               ; preds = %74
  %83 = load i8*, i8** %5, align 8
  %84 = load i32, i32* %4, align 4
  %85 = sext i32 %84 to i64
  %86 = getelementptr inbounds i8, i8* %83, i64 %85
  %87 = load i8, i8* %86, align 1
  %88 = sext i8 %87 to i32
  %89 = icmp slt i32 %88, 123
  br i1 %89, label %90, label %95

90:                                               ; preds = %82
  %91 = load i32*, i32** %6, align 8
  %92 = load i32, i32* %3, align 4
  %93 = sext i32 %92 to i64
  %94 = getelementptr inbounds i32, i32* %91, i64 %93
  store i32 0, i32* %94, align 4
  br label %147

95:                                               ; preds = %82, %74, %66, %58, %50, %42, %34
  %96 = load i32, i32* %4, align 4
  %97 = icmp eq i32 %96, 0
  br i1 %97, label %98, label %143

98:                                               ; preds = %95
  %99 = load i8*, i8** %5, align 8
  %100 = load i32, i32* %4, align 4
  %101 = sext i32 %100 to i64
  %102 = getelementptr inbounds i8, i8* %99, i64 %101
  %103 = load i8, i8* %102, align 1
  %104 = sext i8 %103 to i32
  %105 = icmp sgt i32 %104, 64
  br i1 %105, label %143, label %106

106:                                              ; preds = %98
  %107 = load i8*, i8** %5, align 8
  %108 = load i32, i32* %4, align 4
  %109 = sext i32 %108 to i64
  %110 = getelementptr inbounds i8, i8* %107, i64 %109
  %111 = load i8, i8* %110, align 1
  %112 = sext i8 %111 to i32
  %113 = icmp slt i32 %112, 91
  br i1 %113, label %114, label %143

114:                                              ; preds = %106
  %115 = load i8*, i8** %5, align 8
  %116 = load i32, i32* %4, align 4
  %117 = sext i32 %116 to i64
  %118 = getelementptr inbounds i8, i8* %115, i64 %117
  %119 = load i8, i8* %118, align 1
  %120 = sext i8 %119 to i32
  %121 = icmp sgt i32 %120, 96
  br i1 %121, label %143, label %122

122:                                              ; preds = %114
  %123 = load i8*, i8** %5, align 8
  %124 = load i32, i32* %4, align 4
  %125 = sext i32 %124 to i64
  %126 = getelementptr inbounds i8, i8* %123, i64 %125
  %127 = load i8, i8* %126, align 1
  %128 = sext i8 %127 to i32
  %129 = icmp slt i32 %128, 123
  br i1 %129, label %130, label %143

130:                                              ; preds = %122
  %131 = load i8*, i8** %5, align 8
  %132 = load i32, i32* %4, align 4
  %133 = sext i32 %132 to i64
  %134 = getelementptr inbounds i8, i8* %131, i64 %133
  %135 = load i8, i8* %134, align 1
  %136 = sext i8 %135 to i32
  %137 = icmp ne i32 %136, 95
  br i1 %137, label %138, label %143

138:                                              ; preds = %130
  %139 = load i32*, i32** %6, align 8
  %140 = load i32, i32* %3, align 4
  %141 = sext i32 %140 to i64
  %142 = getelementptr inbounds i32, i32* %139, i64 %141
  store i32 0, i32* %142, align 4
  br label %147

143:                                              ; preds = %130, %122, %114, %106, %98, %95
  br label %144

144:                                              ; preds = %143
  %145 = load i32, i32* %4, align 4
  %146 = add nsw i32 %145, 1
  store i32 %146, i32* %4, align 4
  br label %26

147:                                              ; preds = %138, %90, %26
  br label %148

148:                                              ; preds = %147
  %149 = load i32, i32* %3, align 4
  %150 = add nsw i32 %149, 1
  store i32 %150, i32* %3, align 4
  br label %11

151:                                              ; preds = %11
  store i32 0, i32* %3, align 4
  br label %152

152:                                              ; preds = %163, %151
  %153 = load i32, i32* %3, align 4
  %154 = load i32, i32* %2, align 4
  %155 = icmp slt i32 %153, %154
  br i1 %155, label %156, label %166

156:                                              ; preds = %152
  %157 = load i32*, i32** %6, align 8
  %158 = load i32, i32* %3, align 4
  %159 = sext i32 %158 to i64
  %160 = getelementptr inbounds i32, i32* %157, i64 %159
  %161 = load i32, i32* %160, align 4
  %162 = call i32 (i8*, ...) @printf(i8* getelementptr inbounds ([4 x i8], [4 x i8]* @.str, i64 0, i64 0), i32 %161)
  br label %163

163:                                              ; preds = %156
  %164 = load i32, i32* %3, align 4
  %165 = add nsw i32 %164, 1
  store i32 %165, i32* %3, align 4
  br label %152

166:                                              ; preds = %152
  ret i32 0
}

declare dso_local i32 @__isoc99_scanf(i8*, ...) #1

declare dso_local i32 @gets(...) #1

declare dso_local i32 @printf(i8*, ...) #1


!llvm.module.flags = !{!0}
!llvm.ident = !{!1}

!0 = !{i32 1, !"wchar_size", i32 4}
!1 = !{!"clang version 10.0.0-4ubuntu1 "}
